target datalayout = "e-m:e-p270:32:32-p271:32:32-p272:64:64-i64:64-i128:128-f80:128-n8:16:32:64-S128"
target triple = "x86_64-pc-linux-gnu"

%struct._object = type { %union.anon, ptr }
%union.anon = type { i64 }
%struct.rlimit = type { i64, i64 }

@_Py_NoneStruct = external global %struct._object, align 8
@PyExc_RuntimeError = external global ptr, align 8
@.str.68 = private unnamed_addr constant [27 x i8] c"unable to start the thread\00", align 1

; Function Attrs: nounwind uwtable
define internal void @faulthandler_suppress_crash_report() #0 {
  %1 = alloca %struct.rlimit, align 8
  call void @llvm.lifetime.start.p0(i64 16, ptr %1) #14
  %2 = call i32 @getrlimit64(i32 noundef 4, ptr noundef %1) #14
  %3 = icmp eq i32 %2, 0
  br i1 %3, label %4, label %7

4:                                                ; preds = %0
  %5 = getelementptr inbounds nuw %struct.rlimit, ptr %1, i32 0, i32 0
  store i64 0, ptr %5, align 8, !tbaa !243
  %6 = call i32 @setrlimit64(i32 noundef 4, ptr noundef %1) #14
  br label %7

7:                                                ; preds = %4, %0
  call void @llvm.lifetime.end.p0(i64 16, ptr %1) #14
  ret void
}

; Function Attrs: nounwind uwtable
define internal ptr @faulthandler_fatal_error_c_thread(ptr noundef %0, ptr noundef %1) #0 {
  %3 = alloca ptr, align 8
  %4 = alloca ptr, align 8
  %5 = alloca ptr, align 8
  %6 = alloca i64, align 8
  %7 = alloca ptr, align 8
  %8 = alloca i32, align 4
  store ptr %0, ptr %4, align 8, !tbaa !183
  store ptr %1, ptr %5, align 8, !tbaa !183
  call void @llvm.lifetime.start.p0(i64 8, ptr %6) #14
  call void @llvm.lifetime.start.p0(i64 8, ptr %7) #14
  call void @faulthandler_suppress_crash_report()
  %9 = call ptr @PyThread_allocate_lock()
  store ptr %9, ptr %7, align 8, !tbaa !199
  %10 = load ptr, ptr %7, align 8, !tbaa !199
  %11 = icmp eq ptr %10, null
  br i1 %11, label %12, label %14

12:                                               ; preds = %2
  %13 = call ptr @PyErr_NoMemory()
  store ptr %13, ptr %3, align 8
  store i32 1, ptr %8, align 4
  br label %29

14:                                               ; preds = %2
  %15 = load ptr, ptr %7, align 8, !tbaa !199
  %16 = call i32 @PyThread_acquire_lock(ptr noundef %15, i32 noundef 1)
  %17 = load ptr, ptr %7, align 8, !tbaa !199
  %18 = call i64 @PyThread_start_new_thread(ptr noundef @faulthandler_fatal_error_thread, ptr noundef %17)
  store i64 %18, ptr %6, align 8, !tbaa !177
  %19 = load i64, ptr %6, align 8, !tbaa !177
  %20 = icmp eq i64 %19, -1
  br i1 %20, label %21, label %24

21:                                               ; preds = %14
  %22 = load ptr, ptr %7, align 8, !tbaa !199
  call void @PyThread_free_lock(ptr noundef %22)
  %23 = load ptr, ptr @PyExc_RuntimeError, align 8, !tbaa !183
  call void @PyErr_SetString(ptr noundef %23, ptr noundef @.str.68)
  store ptr null, ptr %3, align 8
  store i32 1, ptr %8, align 4
  br label %29

24:                                               ; preds = %14
  %25 = load ptr, ptr %7, align 8, !tbaa !199
  %26 = call i32 @PyThread_acquire_lock(ptr noundef %25, i32 noundef 1)
  %27 = load ptr, ptr %7, align 8, !tbaa !199
  call void @PyThread_release_lock(ptr noundef %27)
  %28 = load ptr, ptr %7, align 8, !tbaa !199
  call void @PyThread_free_lock(ptr noundef %28)
  store ptr @_Py_NoneStruct, ptr %3, align 8
  store i32 1, ptr %8, align 4
  br label %29

29:                                               ; preds = %24, %21, %12
  call void @llvm.lifetime.end.p0(i64 8, ptr %7) #14
  call void @llvm.lifetime.end.p0(i64 8, ptr %6) #14
  %30 = load ptr, ptr %3, align 8
  ret ptr %30
}