; Function Attrs: nounwind uwtable
define internal ptr @faulthandler_fatal_error_c_thread(ptr readnone captures(none) %0, ptr readnone captures(none) %1) #0 {
  %3 = alloca %struct.rlimit, align 8
  call void @llvm.lifetime.start.p0(i64 16, ptr nonnull %3) #16
  %4 = call i32 @getrlimit64(i32 noundef 4, ptr noundef nonnull %3) #16
  %5 = icmp eq i32 %4, 0
  br i1 %5, label %6, label %faulthandler_suppress_crash_report.exit

6:                                                ; preds = %2
  store i64 0, ptr %3, align 8, !tbaa !224
  %7 = call i32 @setrlimit64(i32 noundef 4, ptr noundef nonnull %3) #16
  br label %faulthandler_suppress_crash_report.exit

faulthandler_suppress_crash_report.exit:          ; preds = %2, %6
  call void @llvm.lifetime.end.p0(i64 16, ptr nonnull %3) #16
  %8 = call ptr @PyThread_allocate_lock() #16
  %9 = icmp eq ptr %8, null
  br i1 %9, label %10, label %12

10:                                               ; preds = %faulthandler_suppress_crash_report.exit
  %11 = call ptr @PyErr_NoMemory() #16
  br label %20

12:                                               ; preds = %faulthandler_suppress_crash_report.exit
  %13 = call i32 @PyThread_acquire_lock(ptr noundef nonnull %8, i32 noundef 1) #16
  %14 = call i64 @PyThread_start_new_thread(ptr noundef nonnull @faulthandler_fatal_error_thread, ptr noundef nonnull %8) #16
  %15 = icmp eq i64 %14, -1
  br i1 %15, label %16, label %18

16:                                               ; preds = %12
  call void @PyThread_free_lock(ptr noundef nonnull %8) #16
  %17 = load ptr, ptr @PyExc_RuntimeError, align 8, !tbaa !187
  call void @PyErr_SetString(ptr noundef %17, ptr noundef nonnull @.str.68) #16
  br label %20

18:                                               ; preds = %12
  %19 = call i32 @PyThread_acquire_lock(ptr noundef nonnull %8, i32 noundef 1) #16
  call void @PyThread_release_lock(ptr noundef nonnull %8) #16
  call void @PyThread_free_lock(ptr noundef nonnull %8) #16
  br label %20

20:                                               ; preds = %18, %16, %10
  %.0 = phi ptr [ %11, %10 ], [ null, %16 ], [ @_Py_NoneStruct, %18 ]
  ret ptr %.0
}